target datalayout = "e-m:e-p270:32:32-p271:32:32-p272:64:64-i64:64-i128:128-f80:128-n8:16:32:64-S128"
target triple = "x86_64-pc-linux-gnu"

; Function Attrs: mustprogress nounwind uwtable
define dso_local noundef zeroext i1 @_ZN4llvm15TargetInstrInfo20fixCommutedOpIndicesERjS1_jj(ptr noundef nonnull align 4 dereferenceable(4) %0, ptr noundef nonnull align 4 dereferenceable(4) %1, i32 noundef %2, i32 noundef %3) #1 align 2 {
  %5 = alloca i1, align 1
  %6 = alloca ptr, align 8
  %7 = alloca ptr, align 8
  %8 = alloca i32, align 4
  %9 = alloca i32, align 4
  store ptr %0, ptr %6, align 8
  store ptr %1, ptr %7, align 8
  store i32 %2, ptr %8, align 4
  store i32 %3, ptr %9, align 4
  %10 = load ptr, ptr %6, align 8
  %11 = load i32, ptr %10, align 4
  %12 = icmp eq i32 %11, -1
  br i1 %12, label %13, label %22

13:                                               ; preds = %4
  %14 = load ptr, ptr %7, align 8
  %15 = load i32, ptr %14, align 4
  %16 = icmp eq i32 %15, -1
  br i1 %16, label %17, label %22

17:                                               ; preds = %13
  %18 = load i32, ptr %8, align 4
  %19 = load ptr, ptr %6, align 8
  store i32 %18, ptr %19, align 4
  %20 = load i32, ptr %9, align 4
  %21 = load ptr, ptr %7, align 8
  store i32 %20, ptr %21, align 4
  br label %94

22:                                               ; preds = %13, %4
  %23 = load ptr, ptr %6, align 8
  %24 = load i32, ptr %23, align 4
  %25 = icmp eq i32 %24, -1
  br i1 %25, label %26, label %45

26:                                               ; preds = %22
  %27 = load ptr, ptr %7, align 8
  %28 = load i32, ptr %27, align 4
  %29 = load i32, ptr %8, align 4
  %30 = icmp eq i32 %28, %29
  br i1 %30, label %31, label %34

31:                                               ; preds = %26
  %32 = load i32, ptr %9, align 4
  %33 = load ptr, ptr %6, align 8
  store i32 %32, ptr %33, align 4
  br label %44

34:                                               ; preds = %26
  %35 = load ptr, ptr %7, align 8
  %36 = load i32, ptr %35, align 4
  %37 = load i32, ptr %9, align 4
  %38 = icmp eq i32 %36, %37
  br i1 %38, label %39, label %42

39:                                               ; preds = %34
  %40 = load i32, ptr %8, align 4
  %41 = load ptr, ptr %6, align 8
  store i32 %40, ptr %41, align 4
  br label %43

42:                                               ; preds = %34
  store i1 false, ptr %5, align 1
  br label %95

43:                                               ; preds = %39
  br label %44

44:                                               ; preds = %43, %31
  br label %93

45:                                               ; preds = %22
  %46 = load ptr, ptr %7, align 8
  %47 = load i32, ptr %46, align 4
  %48 = icmp eq i32 %47, -1
  br i1 %48, label %49, label %68

49:                                               ; preds = %45
  %50 = load ptr, ptr %6, align 8
  %51 = load i32, ptr %50, align 4
  %52 = load i32, ptr %8, align 4
  %53 = icmp eq i32 %51, %52
  br i1 %53, label %54, label %57

54:                                               ; preds = %49
  %55 = load i32, ptr %9, align 4
  %56 = load ptr, ptr %7, align 8
  store i32 %55, ptr %56, align 4
  br label %67

57:                                               ; preds = %49
  %58 = load ptr, ptr %6, align 8
  %59 = load i32, ptr %58, align 4
  %60 = load i32, ptr %9, align 4
  %61 = icmp eq i32 %59, %60
  br i1 %61, label %62, label %65

62:                                               ; preds = %57
  %63 = load i32, ptr %8, align 4
  %64 = load ptr, ptr %7, align 8
  store i32 %63, ptr %64, align 4
  br label %66

65:                                               ; preds = %57
  store i1 false, ptr %5, align 1
  br label %95

66:                                               ; preds = %62
  br label %67

67:                                               ; preds = %66, %54
  br label %92

68:                                               ; preds = %45
  %69 = load ptr, ptr %6, align 8
  %70 = load i32, ptr %69, align 4
  %71 = load i32, ptr %8, align 4
  %72 = icmp eq i32 %70, %71
  br i1 %72, label %73, label %78

73:                                               ; preds = %68
  %74 = load ptr, ptr %7, align 8
  %75 = load i32, ptr %74, align 4
  %76 = load i32, ptr %9, align 4
  %77 = icmp eq i32 %75, %76
  br i1 %77, label %90, label %78

78:                                               ; preds = %73, %68
  %79 = load ptr, ptr %6, align 8
  %80 = load i32, ptr %79, align 4
  %81 = load i32, ptr %9, align 4
  %82 = icmp eq i32 %80, %81
  br i1 %82, label %83, label %88

83:                                               ; preds = %78
  %84 = load ptr, ptr %7, align 8
  %85 = load i32, ptr %84, align 4
  %86 = load i32, ptr %8, align 4
  %87 = icmp eq i32 %85, %86
  br label %88

88:                                               ; preds = %83, %78
  %89 = phi i1 [ false, %78 ], [ %87, %83 ]
  br label %90

90:                                               ; preds = %88, %73
  %91 = phi i1 [ true, %73 ], [ %89, %88 ]
  store i1 %91, ptr %5, align 1
  br label %95

92:                                               ; preds = %67
  br label %93

93:                                               ; preds = %92, %44
  br label %94

94:                                               ; preds = %93, %17
  store i1 true, ptr %5, align 1
  br label %95

95:                                               ; preds = %94, %90, %65, %42
  %96 = load i1, ptr %5, align 1
  ret i1 %96
}