; Function Attrs: mustprogress nofree norecurse nosync nounwind willreturn memory(argmem: readwrite) uwtable
define dso_local noundef zeroext i1 @_ZN4llvm15TargetInstrInfo20fixCommutedOpIndicesERjS1_jj(ptr nocapture noundef nonnull align 4 dereferenceable(4) %0, ptr nocapture noundef nonnull align 4 dereferenceable(4) %1, i32 noundef %2, i32 noundef %3) local_unnamed_addr #8 align 2 {
  %5 = load i32, ptr %0, align 4
  %6 = icmp eq i32 %5, -1
  %7 = load i32, ptr %1, align 4
  %8 = icmp eq i32 %7, -1
  %or.cond = select i1 %6, i1 %8, i1 false
  br i1 %or.cond, label %9, label %10

9:                                                ; preds = %4
  store i32 %2, ptr %0, align 4
  store i32 %3, ptr %1, align 4
  br label %29

10:                                               ; preds = %4
  br i1 %6, label %11, label %17

11:                                               ; preds = %10
  %12 = icmp eq i32 %7, %2
  br i1 %12, label %13, label %14

13:                                               ; preds = %11
  store i32 %3, ptr %0, align 4
  br label %29

14:                                               ; preds = %11
  %15 = icmp eq i32 %7, %3
  br i1 %15, label %16, label %29

16:                                               ; preds = %14
  store i32 %2, ptr %0, align 4
  br label %29

17:                                               ; preds = %10
  %18 = icmp eq i32 %5, %2
  br i1 %8, label %19, label %24

19:                                               ; preds = %17
  br i1 %18, label %20, label %21

20:                                               ; preds = %19
  store i32 %3, ptr %1, align 4
  br label %29

21:                                               ; preds = %19
  %22 = icmp eq i32 %5, %3
  br i1 %22, label %23, label %29

23:                                               ; preds = %21
  store i32 %2, ptr %1, align 4
  br label %29

24:                                               ; preds = %17
  %25 = icmp eq i32 %7, %3
  %or.cond37 = and i1 %18, %25
  br i1 %or.cond37, label %29, label %26

26:                                               ; preds = %24
  %27 = icmp eq i32 %5, %3
  %28 = icmp eq i32 %7, %2
  %spec.select = select i1 %27, i1 %28, i1 false
  br label %29

29:                                               ; preds = %26, %9, %23, %20, %13, %16, %24, %21, %14
  %.0 = phi i1 [ false, %14 ], [ false, %21 ], [ true, %24 ], [ true, %16 ], [ true, %13 ], [ true, %20 ], [ true, %23 ], [ true, %9 ], [ %spec.select, %26 ]
  ret i1 %.0
}